target datalayout = "e-m:e-p270:32:32-p271:32:32-p272:64:64-i64:64-i128:128-f80:128-n8:16:32:64-S128"
target triple = "x86_64-pc-linux-gnu"

%class.JvmtiEventEnabled = type { i64 }

@_ZN20JvmtiEventController31_universal_global_event_enabledE = hidden global %class.JvmtiEventEnabled zeroinitializer, align 8

; Function Attrs: mustprogress nounwind uwtable
define linkonce_odr hidden noundef i64 @_ZN17JvmtiEventEnabled8get_bitsEv(ptr noundef nonnull align 8 dereferenceable(8) %0) #1 comdat align 2 {
  %2 = alloca ptr, align 8
  store ptr %0, ptr %2, align 8
  %3 = load ptr, ptr %2, align 8
  %4 = getelementptr inbounds %class.JvmtiEventEnabled, ptr %3, i32 0, i32 0
  %5 = load i64, ptr %4, align 8
  ret i64 %5
}

; Function Attrs: mustprogress nounwind uwtable
define hidden noundef zeroext i1 @_ZN27JvmtiEventControllerPrivate45is_any_thread_filtered_event_enabled_globallyEv() #1 align 2 {
  %1 = alloca i64, align 8
  %2 = call noundef i64 @_ZN17JvmtiEventEnabled8get_bitsEv(ptr noundef nonnull align 8 dereferenceable(8) @_ZN20JvmtiEventController31_universal_global_event_enabledE)
  %3 = and i64 %2, 2749786749763
  store i64 %3, ptr %1, align 8
  %4 = load i64, ptr %1, align 8
  %5 = icmp ne i64 %4, 0
  ret i1 %5
}

; Function Attrs: mustprogress nounwind uwtable
define hidden void @_ZN27JvmtiEventControllerPrivate25recompute_thread_filteredEP16JvmtiThreadState(ptr noundef %0) #1 align 2 {
  %2 = alloca ptr, align 8
  store ptr %0, ptr %2, align 8
  %3 = call noundef zeroext i1 @_ZN27JvmtiEventControllerPrivate45is_any_thread_filtered_event_enabled_globallyEv()
  br i1 %3, label %4, label %7

4:                                                ; preds = %1
  %5 = load ptr, ptr %2, align 8
  %6 = call noundef i64 @_ZN27JvmtiEventControllerPrivate24recompute_thread_enabledEP16JvmtiThreadState(ptr noundef %5)
  br label %7

7:                                                ; preds = %4, %1
  ret void
}